; ModuleID = '44/977.c'
source_filename = "44/977.c"
target datalayout = "e-m:e-p270:32:32-p271:32:32-p272:64:64-i64:64-f80:128-n8:16:32:64-S128"
target triple = "x86_64-pc-linux-gnu"

@.str = private unnamed_addr constant [3 x i8] c"%d\00", align 1
@.str.1 = private unnamed_addr constant [4 x i8] c"%d\0A\00", align 1

; Function Attrs: noinline nounwind uwtable
define dso_local void @main() #0 {
  %1 = alloca i32, align 4
  %2 = alloca i32, align 4
  %3 = alloca i32, align 4
  %4 = alloca i32, align 4
  store i32 0, i32* %3, align 4
  br label %5

5:                                                ; preds = %34, %0
  %6 = load i32, i32* %3, align 4
  %7 = icmp sle i32 %6, 5
  br i1 %7, label %8, label %37

8:                                                ; preds = %5
  %9 = call i32 (i8*, ...) @__isoc99_scanf(i8* getelementptr inbounds ([3 x i8], [3 x i8]* @.str, i64 0, i64 0), i32* %1)
  %10 = load i32, i32* %1, align 4
  %11 = icmp sgt i32 %10, 0
  br i1 %11, label %15, label %12

12:                                               ; preds = %8
  %13 = load i32, i32* %1, align 4
  %14 = icmp eq i32 %13, 0
  br i1 %14, label %15, label %20

15:                                               ; preds = %12, %8
  %16 = load i32, i32* %1, align 4
  %17 = call i32 @reverse(i32 %16)
  store i32 %17, i32* %2, align 4
  %18 = load i32, i32* %2, align 4
  %19 = call i32 (i8*, ...) @printf(i8* getelementptr inbounds ([4 x i8], [4 x i8]* @.str.1, i64 0, i64 0), i32 %18)
  br label %33

20:                                               ; preds = %12
  %21 = load i32, i32* %1, align 4
  %22 = icmp slt i32 %21, 0
  br i1 %22, label %23, label %32

23:                                               ; preds = %20
  %24 = load i32, i32* %1, align 4
  %25 = sub nsw i32 0, %24
  store i32 %25, i32* %4, align 4
  %26 = load i32, i32* %4, align 4
  %27 = call i32 @reverse(i32 %26)
  store i32 %27, i32* %2, align 4
  %28 = load i32, i32* %2, align 4
  %29 = sub nsw i32 0, %28
  store i32 %29, i32* %4, align 4
  %30 = load i32, i32* %4, align 4
  %31 = call i32 (i8*, ...) @printf(i8* getelementptr inbounds ([4 x i8], [4 x i8]* @.str.1, i64 0, i64 0), i32 %30)
  br label %32

32:                                               ; preds = %23, %20
  br label %33

33:                                               ; preds = %32, %15
  br label %34

34:                                               ; preds = %33
  %35 = load i32, i32* %3, align 4
  %36 = add nsw i32 %35, 1
  store i32 %36, i32* %3, align 4
  br label %5

37:                                               ; preds = %5
  ret void
}

declare dso_local i32 @__isoc99_scanf(i8*, ...) #1

; Function Attrs: noinline nounwind uwtable
define dso_local i32 @reverse(i32 %0) #0 {
  %2 = alloca i32, align 4
  %3 = alloca i32, align 4
  store i32 %0, i32* %2, align 4
  %4 = load i32, i32* %2, align 4
  %5 = srem i32 %4, 10
  store i32 %5, i32* %3, align 4
  %6 = load i32, i32* %2, align 4
  %7 = sdiv i32 %6, 10
  store i32 %7, i32* %2, align 4
  br label %8

8:                                                ; preds = %11, %1
  %9 = load i32, i32* %2, align 4
  %10 = icmp sgt i32 %9, 0
  br i1 %10, label %11, label %19

11:                                               ; preds = %8
  %12 = load i32, i32* %2, align 4
  %13 = srem i32 %12, 10
  %14 = load i32, i32* %3, align 4
  %15 = mul nsw i32 %14, 10
  %16 = add nsw i32 %13, %15
  store i32 %16, i32* %3, align 4
  %17 = load i32, i32* %2, align 4
  %18 = sdiv i32 %17, 10
  store i32 %18, i32* %2, align 4
  br label %8

19:                                               ; preds = %8
  %20 = load i32, i32* %3, align 4
  ret i32 %20
}

declare dso_local i32 @printf(i8*, ...) #1


!llvm.module.flags = !{!0}
!llvm.ident = !{!1}

!0 = !{i32 1, !"wchar_size", i32 4}
!1 = !{!"clang version 10.0.0-4ubuntu1 "}
